; ModuleID = '58/178.c'
source_filename = "58/178.c"
target datalayout = "e-m:e-p270:32:32-p271:32:32-p272:64:64-i64:64-f80:128-n8:16:32:64-S128"
target triple = "x86_64-pc-linux-gnu"

@.str = private unnamed_addr constant [3 x i8] c"%d\00", align 1
@.str.1 = private unnamed_addr constant [3 x i8] c"0\0A\00", align 1
@.str.2 = private unnamed_addr constant [3 x i8] c"1\0A\00", align 1

; Function Attrs: noinline nounwind uwtable
define dso_local i32 @c(i8* %0) #0 {
  %2 = alloca i8*, align 8
  %3 = alloca i32, align 4
  %4 = alloca i32, align 4
  %5 = alloca i32, align 4
  store i8* %0, i8** %2, align 8
  store i32 0, i32* %5, align 4
  %6 = load i8*, i8** %2, align 8
  %7 = call i64 @strlen(i8* %6) #3
  %8 = trunc i64 %7 to i32
  store i32 %8, i32* %4, align 4
  store i32 0, i32* %3, align 4
  br label %9

9:                                                ; preds = %78, %1
  %10 = load i32, i32* %3, align 4
  %11 = load i32, i32* %4, align 4
  %12 = icmp slt i32 %10, %11
  br i1 %12, label %13, label %81

13:                                               ; preds = %9
  %14 = load i8*, i8** %2, align 8
  %15 = load i32, i32* %3, align 4
  %16 = sext i32 %15 to i64
  %17 = getelementptr inbounds i8, i8* %14, i64 %16
  %18 = load i8, i8* %17, align 1
  %19 = sext i8 %18 to i32
  %20 = icmp eq i32 %19, 95
  br i1 %20, label %21, label %22

21:                                               ; preds = %13
  store i32 0, i32* %5, align 4
  br label %77

22:                                               ; preds = %13
  %23 = load i8*, i8** %2, align 8
  %24 = load i32, i32* %3, align 4
  %25 = sext i32 %24 to i64
  %26 = getelementptr inbounds i8, i8* %23, i64 %25
  %27 = load i8, i8* %26, align 1
  %28 = sext i8 %27 to i32
  %29 = icmp sge i32 %28, 65
  br i1 %29, label %30, label %39

30:                                               ; preds = %22
  %31 = load i8*, i8** %2, align 8
  %32 = load i32, i32* %3, align 4
  %33 = sext i32 %32 to i64
  %34 = getelementptr inbounds i8, i8* %31, i64 %33
  %35 = load i8, i8* %34, align 1
  %36 = sext i8 %35 to i32
  %37 = icmp sle i32 %36, 90
  br i1 %37, label %38, label %39

38:                                               ; preds = %30
  store i32 0, i32* %5, align 4
  br label %76

39:                                               ; preds = %30, %22
  %40 = load i8*, i8** %2, align 8
  %41 = load i32, i32* %3, align 4
  %42 = sext i32 %41 to i64
  %43 = getelementptr inbounds i8, i8* %40, i64 %42
  %44 = load i8, i8* %43, align 1
  %45 = sext i8 %44 to i32
  %46 = icmp sge i32 %45, 97
  br i1 %46, label %47, label %56

47:                                               ; preds = %39
  %48 = load i8*, i8** %2, align 8
  %49 = load i32, i32* %3, align 4
  %50 = sext i32 %49 to i64
  %51 = getelementptr inbounds i8, i8* %48, i64 %50
  %52 = load i8, i8* %51, align 1
  %53 = sext i8 %52 to i32
  %54 = icmp sle i32 %53, 122
  br i1 %54, label %55, label %56

55:                                               ; preds = %47
  store i32 0, i32* %5, align 4
  br label %75

56:                                               ; preds = %47, %39
  %57 = load i8*, i8** %2, align 8
  %58 = load i32, i32* %3, align 4
  %59 = sext i32 %58 to i64
  %60 = getelementptr inbounds i8, i8* %57, i64 %59
  %61 = load i8, i8* %60, align 1
  %62 = sext i8 %61 to i32
  %63 = icmp sge i32 %62, 48
  br i1 %63, label %64, label %73

64:                                               ; preds = %56
  %65 = load i8*, i8** %2, align 8
  %66 = load i32, i32* %3, align 4
  %67 = sext i32 %66 to i64
  %68 = getelementptr inbounds i8, i8* %65, i64 %67
  %69 = load i8, i8* %68, align 1
  %70 = sext i8 %69 to i32
  %71 = icmp sle i32 %70, 57
  br i1 %71, label %72, label %73

72:                                               ; preds = %64
  store i32 0, i32* %5, align 4
  br label %74

73:                                               ; preds = %64, %56
  store i32 1, i32* %5, align 4
  br label %81

74:                                               ; preds = %72
  br label %75

75:                                               ; preds = %74, %55
  br label %76

76:                                               ; preds = %75, %38
  br label %77

77:                                               ; preds = %76, %21
  br label %78

78:                                               ; preds = %77
  %79 = load i32, i32* %3, align 4
  %80 = add nsw i32 %79, 1
  store i32 %80, i32* %3, align 4
  br label %9

81:                                               ; preds = %73, %9
  %82 = load i32, i32* %5, align 4
  ret i32 %82
}

; Function Attrs: nounwind readonly
declare dso_local i64 @strlen(i8*) #1

; Function Attrs: noinline nounwind uwtable
define dso_local i32 @main() #0 {
  %1 = alloca i32, align 4
  %2 = alloca [8000 x i8], align 16
  %3 = alloca i32, align 4
  %4 = alloca i32, align 4
  store i32 0, i32* %1, align 4
  %5 = call i32 (i8*, ...) @__isoc99_scanf(i8* getelementptr inbounds ([3 x i8], [3 x i8]* @.str, i64 0, i64 0), i32* %3)
  %6 = getelementptr inbounds [8000 x i8], [8000 x i8]* %2, i64 0, i64 0
  %7 = call i32 (i8*, ...) bitcast (i32 (...)* @gets to i32 (i8*, ...)*)(i8* %6)
  store i32 0, i32* %4, align 4
  br label %8

8:                                                ; preds = %57, %0
  %9 = load i32, i32* %4, align 4
  %10 = load i32, i32* %3, align 4
  %11 = icmp slt i32 %9, %10
  br i1 %11, label %12, label %60

12:                                               ; preds = %8
  %13 = getelementptr inbounds [8000 x i8], [8000 x i8]* %2, i64 0, i64 0
  %14 = call i32 (i8*, ...) bitcast (i32 (...)* @gets to i32 (i8*, ...)*)(i8* %13)
  %15 = getelementptr inbounds [8000 x i8], [8000 x i8]* %2, i64 0, i64 0
  %16 = call i32 @c(i8* %15)
  %17 = icmp eq i32 %16, 1
  br i1 %17, label %18, label %20

18:                                               ; preds = %12
  %19 = call i32 (i8*, ...) @printf(i8* getelementptr inbounds ([3 x i8], [3 x i8]* @.str.1, i64 0, i64 0))
  br label %56

20:                                               ; preds = %12
  %21 = getelementptr inbounds [8000 x i8], [8000 x i8]* %2, i64 0, i64 0
  %22 = load i8, i8* %21, align 16
  %23 = sext i8 %22 to i32
  %24 = icmp eq i32 %23, 95
  br i1 %24, label %25, label %27

25:                                               ; preds = %20
  %26 = call i32 (i8*, ...) @printf(i8* getelementptr inbounds ([3 x i8], [3 x i8]* @.str.2, i64 0, i64 0))
  br label %55

27:                                               ; preds = %20
  %28 = getelementptr inbounds [8000 x i8], [8000 x i8]* %2, i64 0, i64 0
  %29 = load i8, i8* %28, align 16
  %30 = sext i8 %29 to i32
  %31 = icmp sge i32 %30, 65
  br i1 %31, label %32, label %39

32:                                               ; preds = %27
  %33 = getelementptr inbounds [8000 x i8], [8000 x i8]* %2, i64 0, i64 0
  %34 = load i8, i8* %33, align 16
  %35 = sext i8 %34 to i32
  %36 = icmp sle i32 %35, 90
  br i1 %36, label %37, label %39

37:                                               ; preds = %32
  %38 = call i32 (i8*, ...) @printf(i8* getelementptr inbounds ([3 x i8], [3 x i8]* @.str.2, i64 0, i64 0))
  br label %54

39:                                               ; preds = %32, %27
  %40 = getelementptr inbounds [8000 x i8], [8000 x i8]* %2, i64 0, i64 0
  %41 = load i8, i8* %40, align 16
  %42 = sext i8 %41 to i32
  %43 = icmp sge i32 %42, 97
  br i1 %43, label %44, label %51

44:                                               ; preds = %39
  %45 = getelementptr inbounds [8000 x i8], [8000 x i8]* %2, i64 0, i64 0
  %46 = load i8, i8* %45, align 16
  %47 = sext i8 %46 to i32
  %48 = icmp sle i32 %47, 122
  br i1 %48, label %49, label %51

49:                                               ; preds = %44
  %50 = call i32 (i8*, ...) @printf(i8* getelementptr inbounds ([3 x i8], [3 x i8]* @.str.2, i64 0, i64 0))
  br label %53

51:                                               ; preds = %44, %39
  %52 = call i32 (i8*, ...) @printf(i8* getelementptr inbounds ([3 x i8], [3 x i8]* @.str.1, i64 0, i64 0))
  br label %53

53:                                               ; preds = %51, %49
  br label %54

54:                                               ; preds = %53, %37
  br label %55

55:                                               ; preds = %54, %25
  br label %56

56:                                               ; preds = %55, %18
  br label %57

57:                                               ; preds = %56
  %58 = load i32, i32* %4, align 4
  %59 = add nsw i32 %58, 1
  store i32 %59, i32* %4, align 4
  br label %8

60:                                               ; preds = %8
  %61 = call i32 @getchar()
  %62 = call i32 @getchar()
  %63 = load i32, i32* %1, align 4
  ret i32 %63
}

declare dso_local i32 @__isoc99_scanf(i8*, ...) #2

declare dso_local i32 @gets(...) #2

declare dso_local i32 @printf(i8*, ...) #2

declare dso_local i32 @getchar() #2


!llvm.module.flags = !{!0}
!llvm.ident = !{!1}

!0 = !{i32 1, !"wchar_size", i32 4}
!1 = !{!"clang version 10.0.0-4ubuntu1 "}
